target datalayout = "e-m:e-p270:32:32-p271:32:32-p272:64:64-i64:64-i128:128-f80:128-n8:16:32:64-S128"
target triple = "x86_64-pc-linux-gnu"

%struct.ObjectAddress = type { i32, i32, i32 }
%struct.ScanKeyData = type { i32, i16, i16, i32, i32, %struct.FmgrInfo, i64 }
%struct.FmgrInfo = type { ptr, i32, i16, i8, i8, i8, ptr, ptr, ptr }
%struct.nameData = type { [64 x i8] }
%struct.FormData_pg_trigger = type { i32, i32, i32, %struct.nameData, i32, i16, i8, i8, i32, i32, i32, i8, i8, i16, %struct.int2vector }
%struct.int2vector = type { i32, i32, i32, i32, i32, i32, [0 x i16] }
%struct.HeapTupleData = type { i32, %struct.ItemPointerData, i32, ptr }
%struct.ItemPointerData = type { %struct.BlockIdData, i16 }
%struct.BlockIdData = type { i16, i16 }
%struct.HeapTupleHeaderData = type { %union.anon, %struct.ItemPointerData, i16, i16, i8, [0 x i8] }
%union.anon = type { %struct.HeapTupleFields }
%struct.HeapTupleFields = type { i32, i32, %union.anon.1 }
%union.anon.1 = type { i32 }

@.str.2 = private unnamed_addr constant [10 x i8] c"trigger.c\00", align 1
@.str.55 = private unnamed_addr constant [36 x i8] c"could not find tuple for trigger %u\00", align 1
@__func__.TriggerSetParentTrigger = private unnamed_addr constant [24 x i8] c"TriggerSetParentTrigger\00", align 1
@.str.56 = private unnamed_addr constant [40 x i8] c"trigger %u already has a parent trigger\00", align 1

; Function Attrs: inlinehint nounwind uwtable
define internal ptr @GETSTRUCT(ptr noundef %0) #7 {
  %2 = alloca ptr, align 8
  store ptr %0, ptr %2, align 8
  %3 = load ptr, ptr %2, align 8
  %4 = getelementptr inbounds nuw %struct.HeapTupleData, ptr %3, i32 0, i32 3
  %5 = load ptr, ptr %4, align 8
  %6 = load ptr, ptr %2, align 8
  %7 = getelementptr inbounds nuw %struct.HeapTupleData, ptr %6, i32 0, i32 3
  %8 = load ptr, ptr %7, align 8
  %9 = getelementptr inbounds nuw %struct.HeapTupleHeaderData, ptr %8, i32 0, i32 4
  %10 = load i8, ptr %9, align 2
  %11 = zext i8 %10 to i32
  %12 = sext i32 %11 to i64
  %13 = getelementptr inbounds i8, ptr %5, i64 %12
  ret ptr %13
}

; Function Attrs: inlinehint nounwind uwtable
define internal i64 @ObjectIdGetDatum(i32 noundef %0) #7 {
  %2 = alloca i32, align 4
  store i32 %0, ptr %2, align 4
  %3 = load i32, ptr %2, align 4
  %4 = zext i32 %3 to i64
  ret i64 %4
}

; Function Attrs: nounwind uwtable
define dso_local void @TriggerSetParentTrigger(ptr noundef %0, i32 noundef %1, i32 noundef %2, i32 noundef %3) #0 {
  %5 = alloca ptr, align 8
  %6 = alloca i32, align 4
  %7 = alloca i32, align 4
  %8 = alloca i32, align 4
  %9 = alloca ptr, align 8
  %10 = alloca [1 x %struct.ScanKeyData], align 16
  %11 = alloca ptr, align 8
  %12 = alloca ptr, align 8
  %13 = alloca ptr, align 8
  %14 = alloca %struct.ObjectAddress, align 4
  %15 = alloca %struct.ObjectAddress, align 4
  store ptr %0, ptr %5, align 8
  store i32 %1, ptr %6, align 4
  store i32 %2, ptr %7, align 4
  store i32 %3, ptr %8, align 4
  call void @llvm.lifetime.start.p0(i64 8, ptr %9) #12
  call void @llvm.lifetime.start.p0(i64 72, ptr %10) #12
  call void @llvm.lifetime.start.p0(i64 8, ptr %11) #12
  call void @llvm.lifetime.start.p0(i64 8, ptr %12) #12
  call void @llvm.lifetime.start.p0(i64 8, ptr %13) #12
  call void @llvm.lifetime.start.p0(i64 12, ptr %14) #12
  call void @llvm.lifetime.start.p0(i64 12, ptr %15) #12
  %16 = getelementptr inbounds [1 x %struct.ScanKeyData], ptr %10, i64 0, i64 0
  %17 = load i32, ptr %6, align 4
  %18 = call i64 @ObjectIdGetDatum(i32 noundef %17)
  call void @ScanKeyInit(ptr noundef %16, i16 noundef signext 1, i16 noundef zeroext 3, i32 noundef 184, i64 noundef %18)
  %19 = load ptr, ptr %5, align 8
  %20 = getelementptr inbounds [1 x %struct.ScanKeyData], ptr %10, i64 0, i64 0
  %21 = call ptr @systable_beginscan(ptr noundef %19, i32 noundef 2702, i1 noundef zeroext true, ptr noundef null, i32 noundef 1, ptr noundef %20)
  store ptr %21, ptr %9, align 8
  %22 = load ptr, ptr %9, align 8
  %23 = call ptr @systable_getnext(ptr noundef %22)
  store ptr %23, ptr %12, align 8
  %24 = load ptr, ptr %12, align 8
  %25 = icmp ne ptr %24, null
  br i1 %25, label %38, label %26

26:                                               ; preds = %4
  br label %27

27:                                               ; preds = %26
  br i1 true, label %28, label %30

28:                                               ; preds = %27
  %29 = call zeroext i1 @errstart_cold(i32 noundef 21, ptr noundef null) #13
  br i1 %29, label %32, label %35

30:                                               ; preds = %27
  %31 = call zeroext i1 @errstart(i32 noundef 21, ptr noundef null)
  br i1 %31, label %32, label %35

32:                                               ; preds = %30, %28
  %33 = load i32, ptr %6, align 4
  %34 = call i32 (ptr, ...) @errmsg_internal(ptr noundef @.str.55, i32 noundef %33)
  call void @errfinish(ptr noundef @.str.2, i32 noundef 1246, ptr noundef @__func__.TriggerSetParentTrigger)
  br label %35

35:                                               ; preds = %32, %30, %28
  unreachable

36:                                               ; No predecessors!
  br label %37

37:                                               ; preds = %36
  br label %38

38:                                               ; preds = %37, %4
  %39 = load ptr, ptr %12, align 8
  %40 = call ptr @heap_copytuple(ptr noundef %39)
  store ptr %40, ptr %13, align 8
  %41 = load ptr, ptr %13, align 8
  %42 = call ptr @GETSTRUCT(ptr noundef %41)
  store ptr %42, ptr %11, align 8
  %43 = load i32, ptr %7, align 4
  %44 = icmp ne i32 %43, 0
  br i1 %44, label %45, label %91

45:                                               ; preds = %38
  %46 = load ptr, ptr %11, align 8
  %47 = getelementptr inbounds nuw %struct.FormData_pg_trigger, ptr %46, i32 0, i32 2
  %48 = load i32, ptr %47, align 4
  %49 = icmp ne i32 %48, 0
  br i1 %49, label %50, label %62

50:                                               ; preds = %45
  br label %51

51:                                               ; preds = %50
  br i1 true, label %52, label %54

52:                                               ; preds = %51
  %53 = call zeroext i1 @errstart_cold(i32 noundef 21, ptr noundef null) #13
  br i1 %53, label %56, label %59

54:                                               ; preds = %51
  %55 = call zeroext i1 @errstart(i32 noundef 21, ptr noundef null)
  br i1 %55, label %56, label %59

56:                                               ; preds = %54, %52
  %57 = load i32, ptr %6, align 4
  %58 = call i32 (ptr, ...) @errmsg_internal(ptr noundef @.str.56, i32 noundef %57)
  call void @errfinish(ptr noundef @.str.2, i32 noundef 1254, ptr noundef @__func__.TriggerSetParentTrigger)
  br label %59

59:                                               ; preds = %56, %54, %52
  unreachable

60:                                               ; No predecessors!
  br label %61

61:                                               ; preds = %60
  br label %62

62:                                               ; preds = %61, %45
  %63 = load i32, ptr %7, align 4
  %64 = load ptr, ptr %11, align 8
  %65 = getelementptr inbounds nuw %struct.FormData_pg_trigger, ptr %64, i32 0, i32 2
  store i32 %63, ptr %65, align 4
  %66 = load ptr, ptr %5, align 8
  %67 = load ptr, ptr %12, align 8
  %68 = getelementptr inbounds nuw %struct.HeapTupleData, ptr %67, i32 0, i32 1
  %69 = load ptr, ptr %13, align 8
  call void @CatalogTupleUpdate(ptr noundef %66, ptr noundef %68, ptr noundef %69)
  br label %70

70:                                               ; preds = %62
  %71 = getelementptr inbounds nuw %struct.ObjectAddress, ptr %14, i32 0, i32 0
  store i32 2620, ptr %71, align 4
  %72 = load i32, ptr %6, align 4
  %73 = getelementptr inbounds nuw %struct.ObjectAddress, ptr %14, i32 0, i32 1
  store i32 %72, ptr %73, align 4
  %74 = getelementptr inbounds nuw %struct.ObjectAddress, ptr %14, i32 0, i32 2
  store i32 0, ptr %74, align 4
  br label %75

75:                                               ; preds = %70
  br label %76

76:                                               ; preds = %75
  br label %77

77:                                               ; preds = %76
  %78 = getelementptr inbounds nuw %struct.ObjectAddress, ptr %15, i32 0, i32 0
  store i32 2620, ptr %78, align 4
  %79 = load i32, ptr %7, align 4
  %80 = getelementptr inbounds nuw %struct.ObjectAddress, ptr %15, i32 0, i32 1
  store i32 %79, ptr %80, align 4
  %81 = getelementptr inbounds nuw %struct.ObjectAddress, ptr %15, i32 0, i32 2
  store i32 0, ptr %81, align 4
  br label %82

82:                                               ; preds = %77
  br label %83

83:                                               ; preds = %82
  call void @recordDependencyOn(ptr noundef %14, ptr noundef %15, i32 noundef 80)
  br label %84

84:                                               ; preds = %83
  %85 = getelementptr inbounds nuw %struct.ObjectAddress, ptr %15, i32 0, i32 0
  store i32 1259, ptr %85, align 4
  %86 = load i32, ptr %8, align 4
  %87 = getelementptr inbounds nuw %struct.ObjectAddress, ptr %15, i32 0, i32 1
  store i32 %86, ptr %87, align 4
  %88 = getelementptr inbounds nuw %struct.ObjectAddress, ptr %15, i32 0, i32 2
  store i32 0, ptr %88, align 4
  br label %89

89:                                               ; preds = %84
  br label %90

90:                                               ; preds = %89
  call void @recordDependencyOn(ptr noundef %14, ptr noundef %15, i32 noundef 83)
  br label %102

91:                                               ; preds = %38
  %92 = load ptr, ptr %11, align 8
  %93 = getelementptr inbounds nuw %struct.FormData_pg_trigger, ptr %92, i32 0, i32 2
  store i32 0, ptr %93, align 4
  %94 = load ptr, ptr %5, align 8
  %95 = load ptr, ptr %12, align 8
  %96 = getelementptr inbounds nuw %struct.HeapTupleData, ptr %95, i32 0, i32 1
  %97 = load ptr, ptr %13, align 8
  call void @CatalogTupleUpdate(ptr noundef %94, ptr noundef %96, ptr noundef %97)
  %98 = load i32, ptr %6, align 4
  %99 = call i64 @deleteDependencyRecordsForClass(i32 noundef 2620, i32 noundef %98, i32 noundef 2620, i8 noundef signext 80)
  %100 = load i32, ptr %6, align 4
  %101 = call i64 @deleteDependencyRecordsForClass(i32 noundef 2620, i32 noundef %100, i32 noundef 1259, i8 noundef signext 83)
  br label %102

102:                                              ; preds = %91, %90
  %103 = load ptr, ptr %13, align 8
  call void @heap_freetuple(ptr noundef %103)
  %104 = load ptr, ptr %9, align 8
  call void @systable_endscan(ptr noundef %104)
  call void @llvm.lifetime.end.p0(i64 12, ptr %15) #12
  call void @llvm.lifetime.end.p0(i64 12, ptr %14) #12
  call void @llvm.lifetime.end.p0(i64 8, ptr %13) #12
  call void @llvm.lifetime.end.p0(i64 8, ptr %12) #12
  call void @llvm.lifetime.end.p0(i64 8, ptr %11) #12
  call void @llvm.lifetime.end.p0(i64 72, ptr %10) #12
  call void @llvm.lifetime.end.p0(i64 8, ptr %9) #12
  ret void
}