; Function Attrs: nounwind uwtable
define dso_local void @TriggerSetParentTrigger(ptr noundef %0, i32 noundef %1, i32 noundef %2, i32 noundef %3) local_unnamed_addr #0 {
  %5 = alloca [1 x %struct.ScanKeyData], align 16
  %6 = alloca %struct.ObjectAddress, align 4
  %7 = alloca %struct.ObjectAddress, align 4
  call void @llvm.lifetime.start.p0(i64 72, ptr nonnull %5) #16
  call void @llvm.lifetime.start.p0(i64 12, ptr nonnull %6) #16
  call void @llvm.lifetime.start.p0(i64 12, ptr nonnull %7) #16
  %8 = zext i32 %1 to i64
  call void @ScanKeyInit(ptr noundef nonnull %5, i16 noundef signext 1, i16 noundef zeroext 3, i32 noundef 184, i64 noundef %8) #16
  %9 = call ptr @systable_beginscan(ptr noundef %0, i32 noundef 2702, i1 noundef zeroext true, ptr noundef null, i32 noundef 1, ptr noundef nonnull %5) #16
  %10 = call ptr @systable_getnext(ptr noundef %9) #16
  %.not = icmp eq ptr %10, null
  br i1 %.not, label %11, label %14

11:                                               ; preds = %4
  %12 = call zeroext i1 @errstart_cold(i32 noundef 21, ptr noundef null) #17
  call void @llvm.assume(i1 %12)
  %13 = call i32 (ptr, ...) @errmsg_internal(ptr noundef nonnull @.str.55, i32 noundef %1) #16
  call void @errfinish(ptr noundef nonnull @.str.2, i32 noundef 1246, ptr noundef nonnull @__func__.TriggerSetParentTrigger) #16
  unreachable

14:                                               ; preds = %4
  %15 = call ptr @heap_copytuple(ptr noundef nonnull %10) #16
  %16 = getelementptr i8, ptr %15, i64 16
  %.val = load ptr, ptr %16, align 8
  %17 = getelementptr inbounds nuw i8, ptr %.val, i64 22
  %18 = load i8, ptr %17, align 2
  %19 = zext i8 %18 to i64
  %20 = getelementptr inbounds nuw i8, ptr %.val, i64 %19
  %.not26 = icmp eq i32 %2, 0
  %21 = getelementptr inbounds nuw i8, ptr %20, i64 8
  br i1 %.not26, label %33, label %22

22:                                               ; preds = %14
  %23 = load i32, ptr %21, align 4
  %.not27 = icmp eq i32 %23, 0
  br i1 %.not27, label %27, label %24

24:                                               ; preds = %22
  %25 = call zeroext i1 @errstart_cold(i32 noundef 21, ptr noundef null) #17
  call void @llvm.assume(i1 %25)
  %26 = call i32 (ptr, ...) @errmsg_internal(ptr noundef nonnull @.str.56, i32 noundef %1) #16
  call void @errfinish(ptr noundef nonnull @.str.2, i32 noundef 1254, ptr noundef nonnull @__func__.TriggerSetParentTrigger) #16
  unreachable

27:                                               ; preds = %22
  store i32 %2, ptr %21, align 4
  %28 = getelementptr inbounds nuw i8, ptr %10, i64 4
  call void @CatalogTupleUpdate(ptr noundef %0, ptr noundef nonnull %28, ptr noundef nonnull %15) #16
  store i32 2620, ptr %6, align 4
  %29 = getelementptr inbounds nuw i8, ptr %6, i64 4
  store i32 %1, ptr %29, align 4
  %30 = getelementptr inbounds nuw i8, ptr %6, i64 8
  store i32 0, ptr %30, align 4
  store i32 2620, ptr %7, align 4
  %31 = getelementptr inbounds nuw i8, ptr %7, i64 4
  store i32 %2, ptr %31, align 4
  %32 = getelementptr inbounds nuw i8, ptr %7, i64 8
  store i32 0, ptr %32, align 4
  call void @recordDependencyOn(ptr noundef nonnull %6, ptr noundef nonnull %7, i32 noundef 80) #16
  store i32 1259, ptr %7, align 4
  store i32 %3, ptr %31, align 4
  store i32 0, ptr %32, align 4
  call void @recordDependencyOn(ptr noundef nonnull %6, ptr noundef nonnull %7, i32 noundef 83) #16
  br label %37

33:                                               ; preds = %14
  store i32 0, ptr %21, align 4
  %34 = getelementptr inbounds nuw i8, ptr %10, i64 4
  call void @CatalogTupleUpdate(ptr noundef %0, ptr noundef nonnull %34, ptr noundef nonnull %15) #16
  %35 = call i64 @deleteDependencyRecordsForClass(i32 noundef 2620, i32 noundef %1, i32 noundef 2620, i8 noundef signext 80) #16
  %36 = call i64 @deleteDependencyRecordsForClass(i32 noundef 2620, i32 noundef %1, i32 noundef 1259, i8 noundef signext 83) #16
  br label %37

37:                                               ; preds = %33, %27
  call void @heap_freetuple(ptr noundef nonnull %15) #16
  call void @systable_endscan(ptr noundef %9) #16
  call void @llvm.lifetime.end.p0(i64 12, ptr nonnull %7) #16
  call void @llvm.lifetime.end.p0(i64 12, ptr nonnull %6) #16
  call void @llvm.lifetime.end.p0(i64 72, ptr nonnull %5) #16
  ret void
}